target datalayout = "e-m:e-p270:32:32-p271:32:32-p272:64:64-i64:64-i128:128-f80:128-n8:16:32:64-S128"
target triple = "x86_64-pc-linux-gnu"

%"class.base::File" = type <{ %"class.base::ScopedGeneric", [4 x i8], %"class.base::FilePath", [4 x i8], i32, i8, i8, [6 x i8] }>
%"class.base::ScopedGeneric" = type { %"struct.base::ScopedGeneric<int, base::internal::ScopedFDCloseTraits>::Data" }
%"struct.base::ScopedGeneric<int, base::internal::ScopedFDCloseTraits>::Data" = type { i32 }
%"class.base::FilePath" = type { %"class.std::__cxx11::basic_string" }
%"class.std::__cxx11::basic_string" = type { %"struct.std::__cxx11::basic_string<char>::_Alloc_hider", i64, %union.anon }
%"struct.std::__cxx11::basic_string<char>::_Alloc_hider" = type { ptr }
%union.anon = type { i64, [8 x i8] }
%"class.base::FileTracing::ScopedTrace" = type { ptr, ptr }
%struct.flock = type { i16, i16, i64, i64, i32 }

@.str.14 = private unnamed_addr constant [13 x i8] c"File::Unlock\00", align 1

; Function Attrs: mustprogress uwtable
define internal noundef i32 @_ZN4base12_GLOBAL__N_114CallFcntlFlockEib(i32 noundef %0, i1 noundef zeroext %1) #0 {
  %3 = alloca i32, align 4
  %4 = alloca i32, align 4
  %5 = alloca i8, align 1
  %6 = alloca %struct.flock, align 8
  %7 = alloca i32, align 4
  %8 = alloca i32, align 4
  %9 = alloca i32, align 4
  store i32 %0, ptr %4, align 4, !tbaa !41
  %10 = zext i1 %1 to i8
  store i8 %10, ptr %5, align 1, !tbaa !69
  call void @llvm.lifetime.start.p0(i64 32, ptr %6) #14
  %11 = load i8, ptr %5, align 1, !tbaa !69, !range !70, !noundef !71
  %12 = trunc i8 %11 to i1
  %13 = select i1 %12, i32 1, i32 2
  %14 = trunc i32 %13 to i16
  %15 = getelementptr inbounds nuw %struct.flock, ptr %6, i32 0, i32 0
  store i16 %14, ptr %15, align 8, !tbaa !72
  %16 = getelementptr inbounds nuw %struct.flock, ptr %6, i32 0, i32 1
  store i16 0, ptr %16, align 2, !tbaa !75
  %17 = getelementptr inbounds nuw %struct.flock, ptr %6, i32 0, i32 2
  store i64 0, ptr %17, align 8, !tbaa !76
  %18 = getelementptr inbounds nuw %struct.flock, ptr %6, i32 0, i32 3
  store i64 0, ptr %18, align 8, !tbaa !77
  call void @llvm.lifetime.start.p0(i64 4, ptr %7) #14
  br label %19

19:                                               ; preds = %29, %2
  %20 = load i32, ptr %4, align 4, !tbaa !41
  %21 = call i32 (i32, i32, ...) @fcntl(i32 noundef %20, i32 noundef 6, ptr noundef %6)
  store i32 %21, ptr %7, align 4, !tbaa !41
  br label %22

22:                                               ; preds = %19
  %23 = load i32, ptr %7, align 4, !tbaa !41
  %24 = icmp eq i32 %23, -1
  br i1 %24, label %25, label %29

25:                                               ; preds = %22
  %26 = call ptr @__errno_location() #16
  %27 = load i32, ptr %26, align 4, !tbaa !41
  %28 = icmp eq i32 %27, 4
  br label %29

29:                                               ; preds = %25, %22
  %30 = phi i1 [ false, %22 ], [ %28, %25 ]
  br i1 %30, label %19, label %31, !llvm.loop !78

31:                                               ; preds = %29
  %32 = load i32, ptr %7, align 4, !tbaa !41
  store i32 %32, ptr %8, align 4, !tbaa !41
  call void @llvm.lifetime.end.p0(i64 4, ptr %7) #14
  %33 = load i32, ptr %8, align 4, !tbaa !41
  %34 = icmp eq i32 %33, -1
  br i1 %34, label %35, label %39

35:                                               ; preds = %31
  %36 = call ptr @__errno_location() #16
  %37 = load i32, ptr %36, align 4, !tbaa !41
  %38 = call noundef i32 @_ZN4base4File18OSErrorToFileErrorEi(i32 noundef %37)
  store i32 %38, ptr %3, align 4
  store i32 1, ptr %9, align 4
  br label %40

39:                                               ; preds = %31
  store i32 0, ptr %3, align 4
  store i32 1, ptr %9, align 4
  br label %40

40:                                               ; preds = %39, %35
  call void @llvm.lifetime.end.p0(i64 32, ptr %6) #14
  %41 = load i32, ptr %3, align 4
  ret i32 %41
}

; Function Attrs: mustprogress nounwind uwtable
define linkonce_odr noundef nonnull align 4 dereferenceable(4) ptr @_ZNK4base13ScopedGenericIiNS_8internal19ScopedFDCloseTraitsEE3getEv(ptr noundef nonnull align 4 dereferenceable(4) %0) #4 comdat align 2 {
  %2 = alloca ptr, align 8
  store ptr %0, ptr %2, align 8, !tbaa !36
  %3 = load ptr, ptr %2, align 8
  %4 = getelementptr inbounds nuw %"class.base::ScopedGeneric", ptr %3, i32 0, i32 0
  %5 = getelementptr inbounds nuw %"struct.base::ScopedGeneric<int, base::internal::ScopedFDCloseTraits>::Data", ptr %4, i32 0, i32 0
  ret ptr %5
}

; Function Attrs: mustprogress uwtable
define noundef i32 @_ZN4base4File6UnlockEv(ptr noundef nonnull align 8 dereferenceable(50) %0) #0 align 2 personality ptr @__gxx_personality_v0 {
  %2 = alloca ptr, align 8
  %3 = alloca %"class.base::FileTracing::ScopedTrace", align 8
  %4 = alloca ptr, align 8
  %5 = alloca i32, align 4
  store ptr %0, ptr %2, align 8, !tbaa !34
  %6 = load ptr, ptr %2, align 8
  call void @llvm.lifetime.start.p0(i64 16, ptr %3) #14
  call void @_ZN4base11FileTracing11ScopedTraceC1Ev(ptr noundef nonnull align 8 dereferenceable(16) %3)
  %7 = invoke noundef zeroext i1 @_ZN4base11FileTracing17IsCategoryEnabledEv()
          to label %8 unwind label %11

8:                                                ; preds = %1
  br i1 %7, label %9, label %15

9:                                                ; preds = %8
  invoke void @_ZN4base11FileTracing11ScopedTrace10InitializeEPKcPKNS_4FileEl(ptr noundef nonnull align 8 dereferenceable(16) %3, ptr noundef @.str.14, ptr noundef %6, i64 noundef 0)
          to label %10 unwind label %11

10:                                               ; preds = %9
  br label %15

11:                                               ; preds = %18, %15, %9, %1
  %12 = landingpad { ptr, i32 }
          cleanup
  %13 = extractvalue { ptr, i32 } %12, 0
  store ptr %13, ptr %4, align 8
  %14 = extractvalue { ptr, i32 } %12, 1
  store i32 %14, ptr %5, align 4
  call void @_ZN4base11FileTracing11ScopedTraceD1Ev(ptr noundef nonnull align 8 dereferenceable(16) %3) #14
  call void @llvm.lifetime.end.p0(i64 16, ptr %3) #14
  br label %22

15:                                               ; preds = %10, %8
  %16 = getelementptr inbounds nuw %"class.base::File", ptr %6, i32 0, i32 0
  %17 = invoke noundef nonnull align 4 dereferenceable(4) ptr @_ZNK4base13ScopedGenericIiNS_8internal19ScopedFDCloseTraitsEE3getEv(ptr noundef nonnull align 4 dereferenceable(4) %16)
          to label %18 unwind label %11

18:                                               ; preds = %15
  %19 = load i32, ptr %17, align 4, !tbaa !41
  %20 = invoke noundef i32 @_ZN4base12_GLOBAL__N_114CallFcntlFlockEib(i32 noundef %19, i1 noundef zeroext false)
          to label %21 unwind label %11

21:                                               ; preds = %18
  call void @_ZN4base11FileTracing11ScopedTraceD1Ev(ptr noundef nonnull align 8 dereferenceable(16) %3) #14
  call void @llvm.lifetime.end.p0(i64 16, ptr %3) #14
  ret i32 %20

22:                                               ; preds = %11
  %23 = load ptr, ptr %4, align 8
  %24 = load i32, ptr %5, align 4
  %25 = insertvalue { ptr, i32 } poison, ptr %23, 0
  %26 = insertvalue { ptr, i32 } %25, i32 %24, 1
  resume { ptr, i32 } %26
}